; Function Attrs: mustprogress nofree norecurse nosync nounwind willreturn memory(argmem: readwrite, inaccessiblemem: readwrite) uwtable
define dso_local void @_ZNK9btMiniSDF9subdomainEj(ptr dead_on_unwind noalias writable writeonly sret(%struct.btAlignedBox3d) align 4 captures(none) initializes((0, 32)) %0, ptr noundef nonnull readonly align 8 captures(none) dereferenceable(200) %1, i32 noundef %2) local_unnamed_addr #8 align 2 {
  %4 = getelementptr inbounds nuw i8, ptr %1, i64 32
  %5 = load i32, ptr %4, align 8, !tbaa !8
  %6 = getelementptr inbounds nuw i8, ptr %1, i64 36
  %7 = load i32, ptr %6, align 4, !tbaa !8
  %8 = mul i32 %7, %5
  %9 = udiv i32 %2, %8
  %10 = urem i32 %2, %8
  %11 = udiv i32 %10, %5
  %12 = urem i32 %10, %5
  tail call void @llvm.experimental.noalias.scope.decl(metadata !78)
  %13 = getelementptr inbounds nuw i8, ptr %1, i64 44
  %14 = load float, ptr %13, align 4, !tbaa !4, !noalias !78
  %15 = fpext float %14 to double
  %16 = uitofp i32 %12 to double
  %17 = fmul double %16, %15
  %18 = fptrunc double %17 to float
  %19 = getelementptr inbounds nuw i8, ptr %1, i64 48
  %20 = load float, ptr %19, align 8, !tbaa !4, !noalias !78
  %21 = fpext float %20 to double
  %22 = uitofp i32 %11 to double
  %23 = fmul double %22, %21
  %24 = fptrunc double %23 to float
  %25 = getelementptr inbounds nuw i8, ptr %1, i64 52
  %26 = load float, ptr %25, align 4, !tbaa !4, !noalias !78
  %27 = fpext float %26 to double
  %28 = uitofp i32 %9 to double
  %29 = fmul double %28, %27
  %30 = fptrunc double %29 to float
  %31 = load float, ptr %1, align 8, !tbaa !4, !noalias !78
  %32 = fadd float %31, %18
  %33 = getelementptr inbounds nuw i8, ptr %1, i64 4
  %34 = load float, ptr %33, align 4, !tbaa !4, !noalias !78
  %35 = fadd float %34, %24
  %36 = getelementptr inbounds nuw i8, ptr %1, i64 8
  %37 = load float, ptr %36, align 8, !tbaa !4, !noalias !78
  %38 = fadd float %37, %30
  %.sroa.0.0.vec.insert.i.i = insertelement <2 x float> poison, float %32, i64 0
  %.sroa.0.4.vec.insert.i.i = insertelement <2 x float> %.sroa.0.0.vec.insert.i.i, float %35, i64 1
  %.sroa.3.12.vec.insert.i.i = insertelement <2 x float> <float poison, float 0.000000e+00>, float %38, i64 0
  %39 = fadd float %14, %32
  %40 = fadd float %20, %35
  %41 = fadd float %26, %38
  %.sroa.0.0.vec.insert.i4.i = insertelement <2 x float> poison, float %39, i64 0
  %.sroa.0.4.vec.insert.i5.i = insertelement <2 x float> %.sroa.0.0.vec.insert.i4.i, float %40, i64 1
  %.sroa.3.12.vec.insert.i6.i = insertelement <2 x float> <float poison, float 0.000000e+00>, float %41, i64 0
  store <2 x float> %.sroa.0.4.vec.insert.i.i, ptr %0, align 4, !alias.scope !78
  %.sroa.6.0..sroa_idx.i = getelementptr inbounds nuw i8, ptr %0, i64 8
  store <2 x float> %.sroa.3.12.vec.insert.i.i, ptr %.sroa.6.0..sroa_idx.i, align 4, !tbaa !60, !alias.scope !78
  %42 = getelementptr inbounds nuw i8, ptr %0, i64 16
  store <2 x float> %.sroa.0.4.vec.insert.i5.i, ptr %42, align 4, !alias.scope !78
  %.sroa.4.0..sroa_idx.i = getelementptr inbounds nuw i8, ptr %0, i64 24
  store <2 x float> %.sroa.3.12.vec.insert.i6.i, ptr %.sroa.4.0..sroa_idx.i, align 4, !tbaa !60, !alias.scope !78
  ret void
}